; ModuleID = 'bench/openjdk/original/VMSupport.ll'
source_filename = "bench/openjdk/original/VMSupport.ll"
target datalayout = "e-m:e-p270:32:32-p271:32:32-p272:64:64-i64:64-i128:128-f80:128-n8:16:32:64-S128"
target triple = "x86_64-pc-linux-gnu"

; Function Attrs: nounwind uwtable
define ptr @Java_jdk_internal_vm_VMSupport_initAgentProperties(ptr noundef %0, ptr nocapture noundef readnone %1, ptr noundef %2) local_unnamed_addr #0 {
  %4 = tail call ptr @JVM_InitAgentProperties(ptr noundef %0, ptr noundef %2) #2
  ret ptr %4
}

declare ptr @JVM_InitAgentProperties(ptr noundef, ptr noundef) local_unnamed_addr #1

; Function Attrs: nounwind uwtable
define ptr @Java_jdk_internal_vm_VMSupport_getVMTemporaryDirectory(ptr noundef %0, ptr nocapture noundef readnone %1) local_unnamed_addr #0 {
  %3 = tail call ptr @JVM_GetTemporaryDirectory(ptr noundef %0) #2
  ret ptr %3
}

declare ptr @JVM_GetTemporaryDirectory(ptr noundef) local_unnamed_addr #1


!llvm.module.flags = !{!0, !1, !2, !3, !4, !5}

!0 = !{i32 7, !"Dwarf Version", i32 5}
!1 = !{i32 2, !"Debug Info Version", i32 3}
!2 = !{i32 1, !"wchar_size", i32 4}
!3 = !{i32 8, !"PIC Level", i32 2}
!4 = !{i32 7, !"uwtable", i32 2}
!5 = !{i32 7, !"frame-pointer", i32 2}
